target datalayout = "e-m:e-p270:32:32-p271:32:32-p272:64:64-i64:64-i128:128-f80:128-n8:16:32:64-S128"
target triple = "x86_64-pc-linux-gnu"

%struct.expert_field = type { i32, i32 }

@hf_gsm_a_spare_bits = hidden global i32 0, align 4
@ei_gsm_a_extraneous_data = internal global %struct.expert_field zeroinitializer, align 4
@hf_gsm_a_rr_t3212 = external global i32, align 4
@hf_gsm_a_att = internal global i32 0, align 4

; Function Attrs: null_pointer_is_valid sspstrong uwtable
define hidden zeroext i16 @de_cs_domain_spec_sys_info(ptr noundef %0, ptr noundef %1, ptr noundef %2, i32 noundef %3, i32 noundef %4, ptr noundef %5, i32 noundef %6) #1 {
  %8 = alloca ptr, align 8
  %9 = alloca ptr, align 8
  %10 = alloca ptr, align 8
  %11 = alloca i32, align 4
  %12 = alloca i32, align 4
  %13 = alloca ptr, align 8
  %14 = alloca i32, align 4
  %15 = alloca i32, align 4
  store ptr %0, ptr %8, align 8
  store ptr %1, ptr %9, align 8
  store ptr %2, ptr %10, align 8
  store i32 %3, ptr %11, align 4
  store i32 %4, ptr %12, align 4
  store ptr %5, ptr %13, align 8
  store i32 %6, ptr %14, align 4
  call void @llvm.lifetime.start.p0(i64 4, ptr %15) #9
  %16 = load i32, ptr %11, align 4
  store i32 %16, ptr %15, align 4
  %17 = load ptr, ptr %9, align 8
  %18 = load i32, ptr @hf_gsm_a_rr_t3212, align 4
  %19 = load ptr, ptr %8, align 8
  %20 = load i32, ptr %15, align 4
  %21 = call ptr @proto_tree_add_item(ptr noundef %17, i32 noundef %18, ptr noundef %19, i32 noundef %20, i32 noundef 1, i32 noundef 0)
  %22 = load i32, ptr %15, align 4
  %23 = add i32 %22, 1
  store i32 %23, ptr %15, align 4
  %24 = load ptr, ptr %9, align 8
  %25 = load i32, ptr @hf_gsm_a_spare_bits, align 4
  %26 = load ptr, ptr %8, align 8
  %27 = load i32, ptr %15, align 4
  %28 = shl i32 %27, 3
  %29 = call ptr @proto_tree_add_bits_item(ptr noundef %24, i32 noundef %25, ptr noundef %26, i32 noundef %28, i32 noundef 7, i32 noundef 0)
  %30 = load ptr, ptr %9, align 8
  %31 = load i32, ptr @hf_gsm_a_att, align 4
  %32 = load ptr, ptr %8, align 8
  %33 = load i32, ptr %15, align 4
  %34 = call ptr @proto_tree_add_item(ptr noundef %30, i32 noundef %31, ptr noundef %32, i32 noundef %33, i32 noundef 1, i32 noundef 0)
  %35 = load i32, ptr %15, align 4
  %36 = add i32 %35, 1
  store i32 %36, ptr %15, align 4
  %37 = load i32, ptr %12, align 4
  %38 = load i32, ptr %15, align 4
  %39 = load i32, ptr %11, align 4
  %40 = sub i32 %38, %39
  %41 = icmp ugt i32 %37, %40
  br i1 %41, label %42, label %60

42:                                               ; preds = %7
  %43 = load ptr, ptr %9, align 8
  %44 = load ptr, ptr %10, align 8
  %45 = load ptr, ptr %8, align 8
  %46 = load i32, ptr %15, align 4
  %47 = load i32, ptr %12, align 4
  %48 = load i32, ptr %15, align 4
  %49 = load i32, ptr %11, align 4
  %50 = sub i32 %48, %49
  %51 = sub i32 %47, %50
  %52 = call ptr @proto_tree_add_expert(ptr noundef %43, ptr noundef %44, ptr noundef @ei_gsm_a_extraneous_data, ptr noundef %45, i32 noundef %46, i32 noundef %51)
  %53 = load i32, ptr %12, align 4
  %54 = load i32, ptr %15, align 4
  %55 = load i32, ptr %11, align 4
  %56 = sub i32 %54, %55
  %57 = sub i32 %53, %56
  %58 = load i32, ptr %15, align 4
  %59 = add i32 %58, %57
  store i32 %59, ptr %15, align 4
  br label %60

60:                                               ; preds = %42, %7
  %61 = load i32, ptr %15, align 4
  %62 = load i32, ptr %11, align 4
  %63 = sub i32 %61, %62
  %64 = trunc i32 %63 to i16
  call void @llvm.lifetime.end.p0(i64 4, ptr %15) #9
  ret i16 %64
}