; Function Attrs: null_pointer_is_valid sspstrong uwtable
define hidden noundef zeroext i16 @de_cs_domain_spec_sys_info(ptr noundef %0, ptr noundef %1, ptr noundef %2, i32 noundef %3, i32 noundef %4, ptr readnone captures(none) %5, i32 %6) #1 {
  %8 = load i32, ptr @hf_gsm_a_rr_t3212, align 4
  %9 = tail call ptr @proto_tree_add_item(ptr noundef %1, i32 noundef %8, ptr noundef %0, i32 noundef %3, i32 noundef 1, i32 noundef 0)
  %10 = add i32 %3, 1
  %11 = load i32, ptr @hf_gsm_a_spare_bits, align 4
  %12 = shl i32 %10, 3
  %13 = tail call ptr @proto_tree_add_bits_item(ptr noundef %1, i32 noundef %11, ptr noundef %0, i32 noundef %12, i32 noundef 7, i32 noundef 0)
  %14 = load i32, ptr @hf_gsm_a_att, align 4
  %15 = tail call ptr @proto_tree_add_item(ptr noundef %1, i32 noundef %14, ptr noundef %0, i32 noundef %10, i32 noundef 1, i32 noundef 0)
  %16 = add i32 %3, 2
  %17 = icmp ugt i32 %4, 2
  br i1 %17, label %18, label %22

18:                                               ; preds = %7
  %19 = add i32 %4, -2
  %20 = tail call ptr @proto_tree_add_expert(ptr noundef %1, ptr noundef %2, ptr noundef nonnull @ei_gsm_a_extraneous_data, ptr noundef %0, i32 noundef %16, i32 noundef %19)
  %21 = add i32 %4, %3
  br label %22

22:                                               ; preds = %18, %7
  %.0 = phi i32 [ %21, %18 ], [ %16, %7 ]
  %23 = sub i32 %.0, %3
  %24 = trunc i32 %23 to i16
  ret i16 %24
}